; Function Attrs: mustprogress uwtable
define void @_ZN2cv6detail8tracking14kalman_filters27UnscentedKalmanFilterParamsC2EiiiddNS_3PtrINS2_14UkfSystemModelEEEi(ptr noundef nonnull align 8 dereferenceable(440) %0, i32 noundef %1, i32 noundef %2, i32 noundef %3, double noundef %4, double noundef %5, ptr noundef readonly captures(none) %6, i32 noundef %7) unnamed_addr #3 align 2 personality ptr @__gxx_personality_v0 {
  %9 = alloca %"struct.cv::Ptr", align 8
  %10 = getelementptr inbounds nuw i8, ptr %0, i64 16
  tail call void @_ZN2cv3MatC1Ev(ptr noundef nonnull align 8 dereferenceable(96) %10) #19
  %11 = getelementptr inbounds nuw i8, ptr %0, i64 112
  tail call void @_ZN2cv3MatC1Ev(ptr noundef nonnull align 8 dereferenceable(96) %11) #19
  %12 = getelementptr inbounds nuw i8, ptr %0, i64 208
  tail call void @_ZN2cv3MatC1Ev(ptr noundef nonnull align 8 dereferenceable(96) %12) #19
  %13 = getelementptr inbounds nuw i8, ptr %0, i64 304
  tail call void @_ZN2cv3MatC1Ev(ptr noundef nonnull align 8 dereferenceable(96) %13) #19
  %14 = getelementptr inbounds nuw i8, ptr %0, i64 424
  tail call void @llvm.memset.p0.i64(ptr noundef nonnull align 8 dereferenceable(16) %14, i8 0, i64 16, i1 false)
  %15 = load ptr, ptr %6, align 8, !tbaa !32
  store ptr %15, ptr %9, align 8, !tbaa !32
  %16 = getelementptr inbounds nuw i8, ptr %9, i64 8
  %17 = getelementptr inbounds nuw i8, ptr %6, i64 8
  %18 = load ptr, ptr %17, align 8, !tbaa !33
  store ptr %18, ptr %16, align 8, !tbaa !33
  %.not.i.i.i.i = icmp eq ptr %18, null
  br i1 %.not.i.i.i.i, label %_ZN2cv3PtrINS_6detail8tracking14kalman_filters14UkfSystemModelEEC2ERKS5_.exit, label %19

19:                                               ; preds = %8
  %20 = getelementptr inbounds nuw i8, ptr %18, i64 8
  %21 = load i8, ptr @__libc_single_threaded, align 1, !tbaa !34
  %.not.i.i.i.i.i = icmp eq i8 %21, 0
  br i1 %.not.i.i.i.i.i, label %25, label %22

22:                                               ; preds = %19
  %23 = load i32, ptr %20, align 4, !tbaa !35
  %24 = add nsw i32 %23, 1
  store i32 %24, ptr %20, align 4, !tbaa !35
  br label %_ZN2cv3PtrINS_6detail8tracking14kalman_filters14UkfSystemModelEEC2ERKS5_.exit

25:                                               ; preds = %19
  %26 = atomicrmw volatile add ptr %20, i32 1 acq_rel, align 4
  br label %_ZN2cv3PtrINS_6detail8tracking14kalman_filters14UkfSystemModelEEC2ERKS5_.exit

_ZN2cv3PtrINS_6detail8tracking14kalman_filters14UkfSystemModelEEC2ERKS5_.exit: ; preds = %8, %22, %25
  invoke void @_ZN2cv6detail8tracking14kalman_filters27UnscentedKalmanFilterParams4initEiiiddNS_3PtrINS2_14UkfSystemModelEEEi(ptr noundef nonnull align 8 dereferenceable(440) %0, i32 noundef %1, i32 noundef %2, i32 noundef %3, double noundef %4, double noundef %5, ptr noundef nonnull %9, i32 noundef %7)
          to label %27 unwind label %50

27:                                               ; preds = %_ZN2cv3PtrINS_6detail8tracking14kalman_filters14UkfSystemModelEEC2ERKS5_.exit
  %28 = load ptr, ptr %16, align 8, !tbaa !33
  %.not.i.i = icmp eq ptr %28, null
  br i1 %.not.i.i, label %_ZNSt12__shared_ptrIN2cv6detail8tracking14kalman_filters14UkfSystemModelELN9__gnu_cxx12_Lock_policyE2EED2Ev.exit, label %29

29:                                               ; preds = %27
  %30 = getelementptr inbounds nuw i8, ptr %28, i64 8
  %31 = load atomic i64, ptr %30 acquire, align 8
  %32 = icmp eq i64 %31, 4294967297
  %33 = trunc i64 %31 to i32
  br i1 %32, label %34, label %42

34:                                               ; preds = %29
  store i32 0, ptr %30, align 8, !tbaa !36
  %35 = getelementptr inbounds nuw i8, ptr %28, i64 12
  store i32 0, ptr %35, align 4, !tbaa !38
  %36 = load ptr, ptr %28, align 8, !tbaa !39
  %37 = getelementptr inbounds nuw i8, ptr %36, i64 16
  %38 = load ptr, ptr %37, align 8
  tail call void %38(ptr noundef nonnull align 8 dereferenceable(16) %28) #19
  %39 = load ptr, ptr %28, align 8, !tbaa !39
  %40 = getelementptr inbounds nuw i8, ptr %39, i64 24
  %41 = load ptr, ptr %40, align 8
  tail call void %41(ptr noundef nonnull align 8 dereferenceable(16) %28) #19
  br label %_ZNSt12__shared_ptrIN2cv6detail8tracking14kalman_filters14UkfSystemModelELN9__gnu_cxx12_Lock_policyE2EED2Ev.exit

42:                                               ; preds = %29
  %43 = load i8, ptr @__libc_single_threaded, align 1, !tbaa !34
  %.not.i.i.i = icmp eq i8 %43, 0
  br i1 %.not.i.i.i, label %46, label %44

44:                                               ; preds = %42
  %45 = add nsw i32 %33, -1
  store i32 %45, ptr %30, align 4, !tbaa !35
  br label %_ZN9__gnu_cxx27__exchange_and_add_dispatchEPii.exit.i.i.i

46:                                               ; preds = %42
  %47 = atomicrmw volatile add ptr %30, i32 -1 acq_rel, align 4
  br label %_ZN9__gnu_cxx27__exchange_and_add_dispatchEPii.exit.i.i.i

_ZN9__gnu_cxx27__exchange_and_add_dispatchEPii.exit.i.i.i: ; preds = %46, %44
  %.0.i.i.i.i = phi i32 [ %33, %44 ], [ %47, %46 ]
  %48 = icmp eq i32 %.0.i.i.i.i, 1
  br i1 %48, label %49, label %_ZNSt12__shared_ptrIN2cv6detail8tracking14kalman_filters14UkfSystemModelELN9__gnu_cxx12_Lock_policyE2EED2Ev.exit, !prof !41

49:                                               ; preds = %_ZN9__gnu_cxx27__exchange_and_add_dispatchEPii.exit.i.i.i
  tail call void @_ZNSt16_Sp_counted_baseILN9__gnu_cxx12_Lock_policyE2EE24_M_release_last_use_coldEv(ptr noundef nonnull align 8 dereferenceable(16) %28) #19
  br label %_ZNSt12__shared_ptrIN2cv6detail8tracking14kalman_filters14UkfSystemModelELN9__gnu_cxx12_Lock_policyE2EED2Ev.exit

_ZNSt12__shared_ptrIN2cv6detail8tracking14kalman_filters14UkfSystemModelELN9__gnu_cxx12_Lock_policyE2EED2Ev.exit: ; preds = %27, %34, %_ZN9__gnu_cxx27__exchange_and_add_dispatchEPii.exit.i.i.i, %49
  ret void

50:                                               ; preds = %_ZN2cv3PtrINS_6detail8tracking14kalman_filters14UkfSystemModelEEC2ERKS5_.exit
  %51 = landingpad { ptr, i32 }
          cleanup
  call void @_ZNSt12__shared_ptrIN2cv6detail8tracking14kalman_filters14UkfSystemModelELN9__gnu_cxx12_Lock_policyE2EED2Ev(ptr noundef nonnull align 8 dereferenceable(16) %9) #19
  call void @_ZNSt12__shared_ptrIN2cv6detail8tracking14kalman_filters14UkfSystemModelELN9__gnu_cxx12_Lock_policyE2EED2Ev(ptr noundef nonnull align 8 dereferenceable(16) %14) #19
  call void @_ZN2cv3MatD1Ev(ptr noundef nonnull align 8 dereferenceable(96) %13) #19
  call void @_ZN2cv3MatD1Ev(ptr noundef nonnull align 8 dereferenceable(96) %12) #19
  call void @_ZN2cv3MatD1Ev(ptr noundef nonnull align 8 dereferenceable(96) %11) #19
  call void @_ZN2cv3MatD1Ev(ptr noundef nonnull align 8 dereferenceable(96) %10) #19
  resume { ptr, i32 } %51
}